target datalayout = "e-m:e-p270:32:32-p271:32:32-p272:64:64-i64:64-i128:128-f80:128-n8:16:32:64-S128"
target triple = "x86_64-pc-linux-gnu"

%union.OnigValue = type { %struct.anon }
%struct.anon = type { ptr, ptr }
%struct.CalloutListEntry = type { i32, i32, i32, i32, ptr, ptr, i32, ptr, ptr, %union.anon }
%union.anon = type { %struct.anon.1 }
%struct.anon.1 = type { i32, i32, [4 x i32], [4 x %union.OnigValue] }
%struct.RegexExt = type { ptr, ptr, ptr, i32, i32, ptr }

; Function Attrs: nounwind uwtable
define internal i32 @i_callout_callout_list_set(ptr noundef %0, i64 noundef %1, ptr noundef %2) #0 {
  %4 = alloca ptr, align 8
  %5 = alloca i64, align 8
  %6 = alloca ptr, align 8
  %7 = alloca i32, align 4
  %8 = alloca ptr, align 8
  store ptr %0, ptr %4, align 8, !tbaa !4
  store i64 %1, ptr %5, align 8, !tbaa !22
  store ptr %2, ptr %6, align 8, !tbaa !9
  call void @llvm.lifetime.start.p0(i64 4, ptr %7) #8
  call void @llvm.lifetime.start.p0(i64 8, ptr %8) #8
  %9 = load ptr, ptr %6, align 8, !tbaa !9
  store ptr %9, ptr %8, align 8, !tbaa !9
  %10 = load i64, ptr %5, align 8, !tbaa !22
  %11 = trunc i64 %10 to i32
  %12 = sub nsw i32 %11, 1
  store i32 %12, ptr %7, align 4, !tbaa !10
  %13 = load ptr, ptr %8, align 8, !tbaa !9
  %14 = getelementptr inbounds nuw %struct.RegexExt, ptr %13, i32 0, i32 5
  %15 = load ptr, ptr %14, align 8, !tbaa !104
  %16 = load i32, ptr %7, align 4, !tbaa !10
  %17 = sext i32 %16 to i64
  %18 = getelementptr inbounds %struct.CalloutListEntry, ptr %15, i64 %17
  %19 = getelementptr inbounds nuw %struct.CalloutListEntry, ptr %18, i32 0, i32 0
  %20 = load i32, ptr %19, align 8, !tbaa !109
  %21 = or i32 %20, 1
  store i32 %21, ptr %19, align 8, !tbaa !109
  call void @llvm.lifetime.end.p0(i64 8, ptr %8) #8
  call void @llvm.lifetime.end.p0(i64 4, ptr %7) #8
  ret i32 0
}