; Function Attrs: mustprogress nofree norecurse nosync nounwind willreturn memory(readwrite, inaccessiblemem: none) uwtable
define internal noundef i32 @i_callout_callout_list_set(ptr readnone captures(none) %0, i64 noundef %1, ptr noundef readonly captures(none) %2) #22 {
  %4 = getelementptr inbounds nuw i8, ptr %2, i64 32
  %5 = load ptr, ptr %4, align 8, !tbaa !92
  %6 = shl i64 %1, 32
  %sext = add i64 %6, -4294967296
  %7 = ashr exact i64 %sext, 32
  %8 = getelementptr inbounds %struct.CalloutListEntry, ptr %5, i64 %7
  %9 = load i32, ptr %8, align 8, !tbaa !99
  %10 = or i32 %9, 1
  store i32 %10, ptr %8, align 8, !tbaa !99
  ret i32 0
}